target datalayout = "e-m:e-p270:32:32-p271:32:32-p272:64:64-i64:64-i128:128-f80:128-n8:16:32:64-S128"
target triple = "x86_64-pc-linux-gnu"

%struct.expert_field = type { i32, i32 }

@hf_nfapi_length = internal global i32 0, align 4
@hf_nfapi_pdu_index = internal global i32 0, align 4
@hf_nfapi_transmission_power = internal global i32 0, align 4
@ei_invalid_range = internal global %struct.expert_field zeroinitializer, align 4
@.str.2037 = private unnamed_addr constant [44 x i8] c"Invalid transmission power value [0..10000]\00", align 1

; Function Attrs: nounwind uwtable
define internal void @dissect_dl_config_request_bch_pdu_rel8_value(ptr noundef %0, ptr noundef %1) #0 {
  %3 = alloca ptr, align 8
  %4 = alloca ptr, align 8
  %5 = alloca ptr, align 8
  %6 = alloca i32, align 4
  store ptr %0, ptr %3, align 8
  store ptr %1, ptr %4, align 8
  %7 = load ptr, ptr %3, align 8
  %8 = load i32, ptr @hf_nfapi_length, align 4
  %9 = call ptr @ptvcursor_add(ptr noundef %7, i32 noundef %8, i32 noundef 2, i32 noundef 0)
  %10 = load ptr, ptr %3, align 8
  %11 = load i32, ptr @hf_nfapi_pdu_index, align 4
  %12 = call ptr @ptvcursor_add(ptr noundef %10, i32 noundef %11, i32 noundef 2, i32 noundef 0)
  %13 = load ptr, ptr %3, align 8
  %14 = load i32, ptr @hf_nfapi_transmission_power, align 4
  %15 = call ptr @ptvcursor_add_ret_uint(ptr noundef %13, i32 noundef %14, i32 noundef 2, i32 noundef 0, ptr noundef %6)
  store ptr %15, ptr %5, align 8
  %16 = load i32, ptr %6, align 4
  %17 = icmp ugt i32 %16, 10000
  br i1 %17, label %18, label %22

18:                                               ; preds = %2
  %19 = load ptr, ptr %4, align 8
  %20 = load ptr, ptr %5, align 8
  %21 = call ptr (ptr, ptr, ptr, ptr, ...) @expert_add_info_format(ptr noundef %19, ptr noundef %20, ptr noundef @ei_invalid_range, ptr noundef @.str.2037)
  br label %22

22:                                               ; preds = %18, %2
  ret void
}