; Function Attrs: nounwind uwtable
define internal void @dissect_dl_config_request_bch_pdu_rel8_value(ptr noundef %0, ptr noundef %1) #0 {
  %3 = alloca i32, align 4
  %4 = load i32, ptr @hf_nfapi_length, align 4
  %5 = tail call ptr @ptvcursor_add(ptr noundef %0, i32 noundef %4, i32 noundef 2, i32 noundef 0) #7
  %6 = load i32, ptr @hf_nfapi_pdu_index, align 4
  %7 = tail call ptr @ptvcursor_add(ptr noundef %0, i32 noundef %6, i32 noundef 2, i32 noundef 0) #7
  %8 = load i32, ptr @hf_nfapi_transmission_power, align 4
  %9 = call ptr @ptvcursor_add_ret_uint(ptr noundef %0, i32 noundef %8, i32 noundef 2, i32 noundef 0, ptr noundef nonnull %3) #7
  %10 = load i32, ptr %3, align 4
  %11 = icmp ugt i32 %10, 10000
  br i1 %11, label %12, label %14

12:                                               ; preds = %2
  %13 = call ptr (ptr, ptr, ptr, ptr, ...) @expert_add_info_format(ptr noundef %1, ptr noundef %9, ptr noundef nonnull @ei_invalid_range, ptr noundef nonnull @.str.2037) #7
  br label %14

14:                                               ; preds = %12, %2
  ret void
}